target datalayout = "e-m:e-p270:32:32-p271:32:32-p272:64:64-i64:64-i128:128-f80:128-n8:16:32:64-S128"
target triple = "x86_64-pc-linux-gnu"

%struct.Node = type { i32 }
%struct.BoolExpr = type { %struct.Expr, i32, ptr, i32 }
%struct.Expr = type { i32 }

; Function Attrs: inlinehint nounwind uwtable
define internal zeroext i1 @is_orclause(ptr noundef %0) #1 {
  %2 = alloca ptr, align 8
  store ptr %0, ptr %2, align 8
  %3 = load ptr, ptr %2, align 8
  %4 = icmp ne ptr %3, null
  br i1 %4, label %5, label %15

5:                                                ; preds = %1
  %6 = load ptr, ptr %2, align 8
  %7 = getelementptr inbounds nuw %struct.Node, ptr %6, i32 0, i32 0
  %8 = load i32, ptr %7, align 4
  %9 = icmp eq i32 %8, 21
  br i1 %9, label %10, label %15

10:                                               ; preds = %5
  %11 = load ptr, ptr %2, align 8
  %12 = getelementptr inbounds nuw %struct.BoolExpr, ptr %11, i32 0, i32 1
  %13 = load i32, ptr %12, align 4
  %14 = icmp eq i32 %13, 1
  br label %15

15:                                               ; preds = %10, %5, %1
  %16 = phi i1 [ false, %5 ], [ false, %1 ], [ %14, %10 ]
  ret i1 %16
}

; Function Attrs: nounwind uwtable
define dso_local ptr @make_restrictinfo(ptr noundef %0, ptr noundef %1, i1 noundef zeroext %2, i1 noundef zeroext %3, i1 noundef zeroext %4, i1 noundef zeroext %5, i32 noundef %6, ptr noundef %7, ptr noundef %8, ptr noundef %9) #0 {
  %11 = alloca ptr, align 8
  %12 = alloca ptr, align 8
  %13 = alloca ptr, align 8
  %14 = alloca i8, align 1
  %15 = alloca i8, align 1
  %16 = alloca i8, align 1
  %17 = alloca i8, align 1
  %18 = alloca i32, align 4
  %19 = alloca ptr, align 8
  %20 = alloca ptr, align 8
  %21 = alloca ptr, align 8
  store ptr %0, ptr %12, align 8
  store ptr %1, ptr %13, align 8
  %22 = zext i1 %2 to i8
  store i8 %22, ptr %14, align 1
  %23 = zext i1 %3 to i8
  store i8 %23, ptr %15, align 1
  %24 = zext i1 %4 to i8
  store i8 %24, ptr %16, align 1
  %25 = zext i1 %5 to i8
  store i8 %25, ptr %17, align 1
  store i32 %6, ptr %18, align 4
  store ptr %7, ptr %19, align 8
  store ptr %8, ptr %20, align 8
  store ptr %9, ptr %21, align 8
  %26 = load ptr, ptr %13, align 8
  %27 = call zeroext i1 @is_orclause(ptr noundef %26)
  br i1 %27, label %28, label %44

28:                                               ; preds = %10
  %29 = load ptr, ptr %12, align 8
  %30 = load ptr, ptr %13, align 8
  %31 = load i8, ptr %14, align 1, !range !4, !noundef !5
  %32 = trunc i8 %31 to i1
  %33 = load i8, ptr %15, align 1, !range !4, !noundef !5
  %34 = trunc i8 %33 to i1
  %35 = load i8, ptr %16, align 1, !range !4, !noundef !5
  %36 = trunc i8 %35 to i1
  %37 = load i8, ptr %17, align 1, !range !4, !noundef !5
  %38 = trunc i8 %37 to i1
  %39 = load i32, ptr %18, align 4
  %40 = load ptr, ptr %19, align 8
  %41 = load ptr, ptr %20, align 8
  %42 = load ptr, ptr %21, align 8
  %43 = call ptr @make_sub_restrictinfos(ptr noundef %29, ptr noundef %30, i1 noundef zeroext %32, i1 noundef zeroext %34, i1 noundef zeroext %36, i1 noundef zeroext %38, i32 noundef %39, ptr noundef %40, ptr noundef %41, ptr noundef %42)
  store ptr %43, ptr %11, align 8
  br label %60

44:                                               ; preds = %10
  %45 = load ptr, ptr %12, align 8
  %46 = load ptr, ptr %13, align 8
  %47 = load i8, ptr %14, align 1, !range !4, !noundef !5
  %48 = trunc i8 %47 to i1
  %49 = load i8, ptr %15, align 1, !range !4, !noundef !5
  %50 = trunc i8 %49 to i1
  %51 = load i8, ptr %16, align 1, !range !4, !noundef !5
  %52 = trunc i8 %51 to i1
  %53 = load i8, ptr %17, align 1, !range !4, !noundef !5
  %54 = trunc i8 %53 to i1
  %55 = load i32, ptr %18, align 4
  %56 = load ptr, ptr %19, align 8
  %57 = load ptr, ptr %20, align 8
  %58 = load ptr, ptr %21, align 8
  %59 = call ptr @make_plain_restrictinfo(ptr noundef %45, ptr noundef %46, ptr noundef null, i1 noundef zeroext %48, i1 noundef zeroext %50, i1 noundef zeroext %52, i1 noundef zeroext %54, i32 noundef %55, ptr noundef %56, ptr noundef %57, ptr noundef %58)
  store ptr %59, ptr %11, align 8
  br label %60

60:                                               ; preds = %44, %28
  %61 = load ptr, ptr %11, align 8
  ret ptr %61
}