; Function Attrs: nounwind uwtable
define dso_local ptr @make_restrictinfo(ptr noundef %0, ptr noundef %1, i1 noundef zeroext %2, i1 noundef zeroext %3, i1 noundef zeroext %4, i1 noundef zeroext %5, i32 noundef %6, ptr noundef %7, ptr noundef %8, ptr noundef %9) local_unnamed_addr #0 {
  %.not.i = icmp eq ptr %1, null
  br i1 %.not.i, label %is_orclause.exit.thread, label %11

11:                                               ; preds = %10
  %12 = load i32, ptr %1, align 4
  %13 = icmp eq i32 %12, 21
  br i1 %13, label %is_orclause.exit, label %is_orclause.exit.thread

is_orclause.exit:                                 ; preds = %11
  %14 = getelementptr inbounds nuw i8, ptr %1, i64 4
  %15 = load i32, ptr %14, align 4
  %16 = icmp eq i32 %15, 1
  br i1 %16, label %17, label %is_orclause.exit.thread

17:                                               ; preds = %is_orclause.exit
  %18 = tail call fastcc ptr @make_sub_restrictinfos(ptr noundef %0, ptr noundef nonnull %1, i1 noundef zeroext %2, i1 noundef zeroext %3, i1 noundef zeroext %4, i1 noundef zeroext %5, i32 noundef %6, ptr noundef %7, ptr noundef %8, ptr noundef %9)
  br label %20

is_orclause.exit.thread:                          ; preds = %10, %11, %is_orclause.exit
  %19 = tail call ptr @make_plain_restrictinfo(ptr noundef %0, ptr noundef %1, ptr noundef null, i1 noundef zeroext %2, i1 noundef zeroext %3, i1 noundef zeroext %4, i1 noundef zeroext %5, i32 noundef %6, ptr noundef %7, ptr noundef %8, ptr noundef %9)
  br label %20

20:                                               ; preds = %is_orclause.exit.thread, %17
  %.0 = phi ptr [ %18, %17 ], [ %19, %is_orclause.exit.thread ]
  ret ptr %.0
}